target datalayout = "e-m:e-p270:32:32-p271:32:32-p272:64:64-i64:64-i128:128-f80:128-n8:16:32:64-S128"
target triple = "x86_64-pc-linux-gnu"

%class.HotSpotCompiledCodeStream = type { ptr, ptr, ptr, i8, %class.objArrayHandle, ptr, ptr, ptr }
%class.objArrayHandle = type { %class.Handle }
%class.Handle = type { ptr }
%"class.HotSpotCompiledCodeStream::Chunk" = type <{ ptr, i32, [4 x i8] }>

; Function Attrs: mustprogress nounwind uwtable
define linkonce_odr hidden noundef ptr @_ZNK25HotSpotCompiledCodeStream5Chunk4dataEv(ptr noundef nonnull align 8 dereferenceable(12) %0) #1 comdat align 2 {
  %2 = alloca ptr, align 8
  store ptr %0, ptr %2, align 8
  %3 = load ptr, ptr %2, align 8
  %4 = getelementptr inbounds i8, ptr %3, i64 12
  ret ptr %4
}

; Function Attrs: mustprogress nounwind uwtable
define linkonce_odr hidden noundef i32 @_ZNK25HotSpotCompiledCodeStream5Chunk4sizeEv(ptr noundef nonnull align 8 dereferenceable(12) %0) #1 comdat align 2 {
  %2 = alloca ptr, align 8
  store ptr %0, ptr %2, align 8
  %3 = load ptr, ptr %2, align 8
  %4 = getelementptr inbounds %"class.HotSpotCompiledCodeStream::Chunk", ptr %3, i32 0, i32 1
  %5 = load i32, ptr %4, align 8
  ret i32 %5
}

; Function Attrs: mustprogress nounwind uwtable
define linkonce_odr hidden noundef ptr @_ZNK25HotSpotCompiledCodeStream5Chunk4nextEv(ptr noundef nonnull align 8 dereferenceable(12) %0) #1 comdat align 2 {
  %2 = alloca ptr, align 8
  store ptr %0, ptr %2, align 8
  %3 = load ptr, ptr %2, align 8
  %4 = getelementptr inbounds %"class.HotSpotCompiledCodeStream::Chunk", ptr %3, i32 0, i32 0
  %5 = load ptr, ptr %4, align 8
  ret ptr %5
}

; Function Attrs: mustprogress nounwind uwtable
define linkonce_odr hidden noundef ptr @_ZNK25HotSpotCompiledCodeStream5Chunk8data_endEv(ptr noundef nonnull align 8 dereferenceable(12) %0) #1 comdat align 2 {
  %2 = alloca ptr, align 8
  store ptr %0, ptr %2, align 8
  %3 = load ptr, ptr %2, align 8
  %4 = call noundef ptr @_ZNK25HotSpotCompiledCodeStream5Chunk4dataEv(ptr noundef nonnull align 8 dereferenceable(12) %3)
  %5 = getelementptr inbounds %"class.HotSpotCompiledCodeStream::Chunk", ptr %3, i32 0, i32 1
  %6 = load i32, ptr %5, align 8
  %7 = zext i32 %6 to i64
  %8 = getelementptr inbounds i8, ptr %4, i64 %7
  ret ptr %8
}

; Function Attrs: mustprogress nounwind uwtable
define hidden noundef zeroext i1 @_ZNK25HotSpotCompiledCodeStream9availableEv(ptr noundef nonnull align 8 dereferenceable(64) %0) #1 align 2 {
  %2 = alloca ptr, align 8
  %3 = alloca i32, align 4
  %4 = alloca ptr, align 8
  store ptr %0, ptr %2, align 8
  %5 = load ptr, ptr %2, align 8
  %6 = getelementptr inbounds %class.HotSpotCompiledCodeStream, ptr %5, i32 0, i32 1
  %7 = load ptr, ptr %6, align 8
  %8 = call noundef ptr @_ZNK25HotSpotCompiledCodeStream5Chunk8data_endEv(ptr noundef nonnull align 8 dereferenceable(12) %7)
  %9 = getelementptr inbounds %class.HotSpotCompiledCodeStream, ptr %5, i32 0, i32 2
  %10 = load ptr, ptr %9, align 8
  %11 = ptrtoint ptr %8 to i64
  %12 = ptrtoint ptr %10 to i64
  %13 = sub i64 %11, %12
  %14 = trunc i64 %13 to i32
  store i32 %14, ptr %3, align 4
  %15 = getelementptr inbounds %class.HotSpotCompiledCodeStream, ptr %5, i32 0, i32 1
  %16 = load ptr, ptr %15, align 8
  %17 = call noundef ptr @_ZNK25HotSpotCompiledCodeStream5Chunk4nextEv(ptr noundef nonnull align 8 dereferenceable(12) %16)
  store ptr %17, ptr %4, align 8
  br label %18

18:                                               ; preds = %26, %1
  %19 = load ptr, ptr %4, align 8
  %20 = icmp ne ptr %19, null
  br i1 %20, label %21, label %29

21:                                               ; preds = %18
  %22 = load ptr, ptr %4, align 8
  %23 = call noundef i32 @_ZNK25HotSpotCompiledCodeStream5Chunk4sizeEv(ptr noundef nonnull align 8 dereferenceable(12) %22)
  %24 = load i32, ptr %3, align 4
  %25 = add i32 %24, %23
  store i32 %25, ptr %3, align 4
  br label %26

26:                                               ; preds = %21
  %27 = load ptr, ptr %4, align 8
  %28 = call noundef ptr @_ZNK25HotSpotCompiledCodeStream5Chunk4nextEv(ptr noundef nonnull align 8 dereferenceable(12) %27)
  store ptr %28, ptr %4, align 8
  br label %18, !llvm.loop !8

29:                                               ; preds = %18
  %30 = load i32, ptr %3, align 4
  %31 = icmp ne i32 %30, 0
  ret i1 %31
}