; Function Attrs: mustprogress nofree norecurse nosync nounwind willreturn memory(read, inaccessiblemem: none) uwtable
define hidden noundef zeroext i1 @_ZNK25HotSpotCompiledCodeStream9availableEv(ptr nocapture noundef nonnull readonly align 8 dereferenceable(64) %0) local_unnamed_addr #4 align 2 {
  %2 = getelementptr inbounds i8, ptr %0, i64 8
  %3 = load ptr, ptr %2, align 8
  %4 = getelementptr inbounds i8, ptr %3, i64 12
  %5 = getelementptr inbounds i8, ptr %3, i64 8
  %6 = load i32, ptr %5, align 8
  %7 = zext i32 %6 to i64
  %8 = getelementptr inbounds i8, ptr %4, i64 %7
  %9 = getelementptr inbounds i8, ptr %0, i64 16
  %10 = load ptr, ptr %9, align 8
  %11 = ptrtoint ptr %8 to i64
  %12 = ptrtoint ptr %10 to i64
  %13 = sub i64 %11, %12
  %14 = trunc i64 %13 to i32
  %.06 = load ptr, ptr %3, align 8
  %.not7 = icmp eq ptr %.06, null
  br i1 %.not7, label %._crit_edge, label %.lr.ph

.lr.ph:                                           ; preds = %1, %.lr.ph
  %.09 = phi ptr [ %.0, %.lr.ph ], [ %.06, %1 ]
  %.058 = phi i32 [ %17, %.lr.ph ], [ %14, %1 ]
  %15 = getelementptr inbounds i8, ptr %.09, i64 8
  %16 = load i32, ptr %15, align 8
  %17 = add i32 %16, %.058
  %.0 = load ptr, ptr %.09, align 8
  %.not = icmp eq ptr %.0, null
  br i1 %.not, label %._crit_edge, label %.lr.ph, !llvm.loop !8

._crit_edge:                                      ; preds = %.lr.ph, %1
  %.05.lcssa = phi i32 [ %14, %1 ], [ %17, %.lr.ph ]
  %18 = icmp ne i32 %.05.lcssa, 0
  ret i1 %18
}